Certificate:
    Data:
        Version: 3 (0x2)
        Serial Number:
            f0:f3:46:c9:59:1c:d7:30:c2:c5:5d:07:fc:a4:a9:cd
        Signature Algorithm: ecdsa-with-SHA512
        Issuer: CN = Ben Crannich Root CA B1, O = Ben Crannich
        Validity
            Not Before: Nov 18 19:34:39 2022 GMT
            Not After : Dec 18 19:34:39 2022 GMT
        Subject: CN = Ben Crannich Root CA B1, O = Ben Crannich
        Subject Public Key Info:
            Public Key Algorithm: id-ecPublicKey
                Public-Key: (256 bit)
                pub:
                    04:34:40:90:04:dc:f4:40:00:26:de:7a:c8:aa:fc:
                    5c:ae:a9:c9:b2:64:0d:ee:a3:44:eb:d5:de:33:7a:
                    4a:6b:e1:ab:4c:dd:12:d6:db:47:f1:fc:5c:39:86:
                    9f:fe:cf:d6:c2:1f:c2:38:e9:5c:d5:ed:0d:47:8a:
                    a9:c4:59:40:21
                ASN1 OID: prime256v1
                NIST CURVE: P-256
        X509v3 extensions:
            X509v3 Basic Constraints: critical
                CA:TRUE
            X509v3 Key Usage: critical
                Certificate Sign, CRL Sign
            X509v3 Subject Key Identifier: 
                9D:94:05:8B:85:53:8D:B8:DA:1B:5E:53:E5:5B:8B:E3:A4:BD:54:4B
    Signature Algorithm: ecdsa-with-SHA512
         30:45:02:20:4e:e3:61:48:1b:80:21:b1:7b:86:34:a0:1c:aa:
         96:86:b4:da:eb:d9:0e:92:cc:54:7d:15:b0:a3:b3:18:20:85:
         02:21:00:9f:cd:fb:20:a0:0b:cf:c3:dc:66:e4:99:20:59:85:
         67:fe:4a:67:22:f8:52:53:e1:8e:a2:58:bb:bd:6c:30:3b
-----BEGIN CERTIFICATE-----
MIIBszCCAVmgAwIBAgIRAPDzRslZHNcwwsVdB/ykqc0wCgYIKoZIzj0EAwQwOTEg
MB4GA1UEAwwXQmVuIENyYW5uaWNoIFJvb3QgQ0EgQjExFTATBgNVBAoMDEJlbiBD
cmFubmljaDAeFw0yMjExMTgxOTM0MzlaFw0yMjEyMTgxOTM0MzlaMDkxIDAeBgNV
BAMMF0JlbiBDcmFubmljaCBSb290IENBIEIxMRUwEwYDVQQKDAxCZW4gQ3Jhbm5p
Y2gwWTATBgcqhkjOPQIBBggqhkjOPQMBBwNCAAQ0QJAE3PRAACbeesiq/Fyuqcmy
ZA3uo0Tr1d4zekpr4atM3RLW20fx/Fw5hp/+z9bCH8I46VzV7Q1HiqnEWUAho0Iw
QDAPBgNVHRMBAf8EBTADAQH/MA4GA1UdDwEB/wQEAwIBBjAdBgNVHQ4EFgQUnZQF
i4VTjbjaG15T5VuL46S9VEswCgYIKoZIzj0EAwQDSAAwRQIgTuNhSBuAIbF7hjSg
HKqWhrTa69kOksxUfRWwo7MYIIUCIQCfzfsgoAvPw9xm5JkgWYVn/kpnIvhSU+GO
oli7vWwwOw==
-----END CERTIFICATE-----
